__ZGVN5boost16exception*
__ZGVN5boost4asio6detail10call*
__ZGVN5boost4asio6detail12service_baseINS0*
__ZGVZN5boost16exception_detail27get*
 __ZGVZN5boost4asio5error*
__ZN11OpenImageIO4v1_74pugi4impl16default_allocateEm
__ZN11OpenImageIO4v1_74pugi4impl18default_deallocateEPv
__ZN11OpenImageIO4v1_74pugi4impl38xml_memory_management_function_storageIiE10deallocateE
__ZN11OpenImageIO4v1_74pugi4impl38xml_memory_management_function_storageIiE8allocateE
__ZN5boost16exception_*
__ZN5boost16re_detail_*
__ZN5boost16re_detail_10610012perl_matcherINSt3*
__ZN5boost4asio6detail10call*
__ZN5boost4asio6detail16service*
__ZN5boost6detail8function15functor*
__ZN7Imf_2_214TypedAttribute*
__ZN7Imf_2_218MultiPartInputFile*
__ZN7Imf_2_219MultiPartOutputFil*
__ZNSt3__114__thread_proxyINS*
__ZZN11OpenImageIO4v1_77iff_pvt10tile_widthEvE6tile_w
__ZZN11OpenImageIO4v1_77iff_pvt11tile_heightEvE6tile_h
__ZZN11OpenImageIO4v1_78RLAInput16get_month_numberEPKcE6months
__ZZN5boost16exception_detail27get*
__ZZN5boost4asio5error*
__ZZN5boost9function2IbPN11OpenImageIO4v1_78PSDInputEjE9assign_toINS_3_bi6bind_tIbNS_4_mfi3mf1IbS3_jEENS7_5list2INS_3argILi1EEENSD_ILi2EEEEEEEEEvT_E13stored_vtable
__ZZNK5boost17integral_constantIbLb0EEcvRKN4mpl_5bool_ILb0EEEEvE4data
_boost_asio_detail_posix_thread_function
__ZGVN5boost4asio6detail12service_baseINS1*
__ZN5boost6detail8function21function_obj_invoker2INS_3_bi6bind_tIbNS_4_mfi3mf1IbN11OpenImageIO4v1_78PSDInputEjEENS3_5list2INS_3argILi1EEENSC_ILi2EEEEEEEbPS9_jE6invokeERNS1_15function_bufferESH_j
__ZGVZN5boost12object*
__ZGVZN5boost*
__ZN5boost1*
__ZNSt3__112__cxx03_bool12__true_valueEv
__ZZN5boost1*
__ZNK5boost16cpp_regex_traitsIcE3toiERPKcS3_i
__ZNK5boost16re_detail_10610031cpp_regex_traits_implementationI*
__ZN16OpenImageIO_v1_84pugi4impl16default_allocateEm
__ZN16OpenImageIO_v1_84pugi4impl18default_deallocateEPv
__ZN16OpenImageIO_v1_84pugi4impl38xml_memory_management_function_storageIiE10deallocateE
__ZN16OpenImageIO_v1_84pugi4impl38xml_memory_management_function_storageIiE8allocateE
__ZZN16OpenImageIO_v1_87iff_pvt10tile_widthEvE6tile_w
__ZZN16OpenImageIO_v1_87iff_pvt11tile_heightEvE6tile_h
__ZZN16OpenImageIO_v1_88RLAInput16get_month_numberEPKcE6months